target datalayout = "e-m:e-p270:32:32-p271:32:32-p272:64:64-i64:64-i128:128-f80:128-n8:16:32:64-S128"
target triple = "x86_64-pc-linux-gnu"

%"struct.vcpkg::StringView" = type { ptr, i64 }
%"struct.vcpkg::Unicode::Utf8Decoder" = type { i32, ptr, ptr, ptr }
%"struct.vcpkg::LocalizedString" = type { %"class.std::__cxx11::basic_string" }
%"class.std::__cxx11::basic_string" = type { %"struct.std::__cxx11::basic_string<char>::_Alloc_hider", i64, %union.anon }
%"struct.std::__cxx11::basic_string<char>::_Alloc_hider" = type { ptr }
%union.anon = type { i64, [8 x i8] }
%"struct.vcpkg::LineInfo" = type { i32, ptr }
%"struct.vcpkg::ParseMessages" = type { %"struct.vcpkg::Optional", %"class.std::vector" }
%"struct.vcpkg::Optional" = type { %"struct.vcpkg::details::OptionalStorage" }
%"struct.vcpkg::details::OptionalStorage" = type { %"struct.vcpkg::details::OptionalStorageDtor" }
%"struct.vcpkg::details::OptionalStorageDtor" = type { i8, %union.anon.1 }
%union.anon.1 = type { %"struct.vcpkg::LocalizedString" }
%"class.std::vector" = type { %"struct.std::_Vector_base" }
%"struct.std::_Vector_base" = type { %"struct.std::_Vector_base<vcpkg::ParseMessage, std::allocator<vcpkg::ParseMessage>>::_Vector_impl" }
%"struct.std::_Vector_base<vcpkg::ParseMessage, std::allocator<vcpkg::ParseMessage>>::_Vector_impl" = type { %"struct.std::_Vector_base<vcpkg::ParseMessage, std::allocator<vcpkg::ParseMessage>>::_Vector_impl_data" }
%"struct.std::_Vector_base<vcpkg::ParseMessage, std::allocator<vcpkg::ParseMessage>>::_Vector_impl_data" = type { ptr, ptr, ptr }
%"struct.vcpkg::ParserBase" = type { %"struct.vcpkg::Unicode::Utf8Decoder", %"struct.vcpkg::Unicode::Utf8Decoder", i32, i32, %"struct.vcpkg::StringView", %"struct.vcpkg::Optional.5", %"struct.vcpkg::ParseMessages" }
%"struct.vcpkg::Optional.5" = type { %"struct.vcpkg::details::OptionalStorage.6" }
%"struct.vcpkg::details::OptionalStorage.6" = type { %"struct.vcpkg::details::OptionalStorageDtor.7" }
%"struct.vcpkg::details::OptionalStorageDtor.7" = type { i8, %union.anon.8 }
%union.anon.8 = type { %"struct.vcpkg::StringView" }

@.str.3 = private unnamed_addr constant [123 x i8] c"generated/home/dtcxzyw/WorkSpace/Projects/compilers/llvm-opt-benchmark/bench/vcpkg/vcpkg-tool/include/vcpkg/base/unicode.h\00", align 1

; Function Attrs: noinline noreturn nounwind uwtable
define linkonce_odr hidden void @__clang_call_terminate(ptr noundef %0) #11 comdat {
  %2 = call ptr @__cxa_begin_catch(ptr %0) #19
  call void @_ZSt9terminatev() #21
  unreachable
}

; Function Attrs: mustprogress nounwind uwtable
define linkonce_odr dso_local noundef i64 @_ZNK5vcpkg10StringView4sizeEv(ptr noundef nonnull align 8 dereferenceable(16) %0) #2 comdat align 2 {
  %2 = alloca ptr, align 8
  store ptr %0, ptr %2, align 8, !tbaa !26
  %3 = load ptr, ptr %2, align 8
  %4 = getelementptr inbounds nuw %"struct.vcpkg::StringView", ptr %3, i32 0, i32 1
  %5 = load i64, ptr %4, align 8, !tbaa !30
  ret i64 %5
}

; Function Attrs: mustprogress nounwind uwtable
define linkonce_odr dso_local noundef zeroext i1 @_ZN5vcpkg10ParserBase13is_whitespaceEDi(i32 noundef zeroext %0) #2 comdat align 2 {
  %2 = alloca i32, align 4
  store i32 %0, ptr %2, align 4, !tbaa !14
  %3 = load i32, ptr %2, align 4, !tbaa !14
  %4 = icmp eq i32 %3, 32
  br i1 %4, label %14, label %5

5:                                                ; preds = %1
  %6 = load i32, ptr %2, align 4, !tbaa !14
  %7 = icmp eq i32 %6, 9
  br i1 %7, label %14, label %8

8:                                                ; preds = %5
  %9 = load i32, ptr %2, align 4, !tbaa !14
  %10 = icmp eq i32 %9, 13
  br i1 %10, label %14, label %11

11:                                               ; preds = %8
  %12 = load i32, ptr %2, align 4, !tbaa !14
  %13 = icmp eq i32 %12, 10
  br label %14

14:                                               ; preds = %11, %8, %5, %1
  %15 = phi i1 [ true, %8 ], [ true, %5 ], [ true, %1 ], [ %13, %11 ]
  ret i1 %15
}

; Function Attrs: mustprogress nounwind uwtable
define linkonce_odr dso_local noundef zeroext i32 @_ZNK5vcpkg7Unicode11Utf8DecoderdeEv(ptr noundef nonnull align 8 dereferenceable(32) %0) #2 comdat align 2 personality ptr @__gxx_personality_v0 {
  %2 = alloca ptr, align 8
  %3 = alloca %"struct.vcpkg::LineInfo", align 8
  store ptr %0, ptr %2, align 8, !tbaa !9
  %4 = load ptr, ptr %2, align 8
  %5 = call noundef zeroext i1 @_ZNK5vcpkg7Unicode11Utf8Decoder6is_eofEv(ptr noundef nonnull align 8 dereferenceable(32) %4) #19
  br i1 %5, label %6, label %10

6:                                                ; preds = %1
  call void @llvm.lifetime.start.p0(i64 16, ptr %3) #19
  %7 = getelementptr inbounds nuw %"struct.vcpkg::LineInfo", ptr %3, i32 0, i32 0
  store i32 153, ptr %7, align 8, !tbaa !31
  %8 = getelementptr inbounds nuw %"struct.vcpkg::LineInfo", ptr %3, i32 0, i32 1
  store ptr @.str.3, ptr %8, align 8, !tbaa !34
  invoke void @_ZN5vcpkg6Checks11unreachableERKNS_8LineInfoE(ptr noundef nonnull align 8 dereferenceable(16) %3) #20
          to label %9 unwind label %13

9:                                                ; preds = %6
  unreachable

10:                                               ; preds = %1
  %11 = getelementptr inbounds nuw %"struct.vcpkg::Unicode::Utf8Decoder", ptr %4, i32 0, i32 0
  %12 = load i32, ptr %11, align 8, !tbaa !35
  ret i32 %12

13:                                               ; preds = %6
  %14 = landingpad { ptr, i32 }
          catch ptr null
  %15 = extractvalue { ptr, i32 } %14, 0
  call void @__clang_call_terminate(ptr %15) #21
  unreachable
}

; Function Attrs: inlinehint mustprogress nounwind uwtable
define linkonce_odr dso_local noundef zeroext i1 @_ZNK5vcpkg7Unicode11Utf8Decoder6is_eofEv(ptr noundef nonnull align 8 dereferenceable(32) %0) #6 comdat align 2 {
  %2 = alloca ptr, align 8
  store ptr %0, ptr %2, align 8, !tbaa !9
  %3 = load ptr, ptr %2, align 8
  %4 = getelementptr inbounds nuw %"struct.vcpkg::Unicode::Utf8Decoder", ptr %3, i32 0, i32 0
  %5 = load i32, ptr %4, align 8, !tbaa !35
  %6 = icmp eq i32 %5, -1
  ret i1 %6
}

; Function Attrs: mustprogress nounwind uwtable
define linkonce_odr dso_local noundef ptr @_ZNK5vcpkg10StringView3endEv(ptr noundef nonnull align 8 dereferenceable(16) %0) #2 comdat align 2 {
  %2 = alloca ptr, align 8
  store ptr %0, ptr %2, align 8, !tbaa !26
  %3 = load ptr, ptr %2, align 8
  %4 = getelementptr inbounds nuw %"struct.vcpkg::StringView", ptr %3, i32 0, i32 0
  %5 = load ptr, ptr %4, align 8, !tbaa !28
  %6 = getelementptr inbounds nuw %"struct.vcpkg::StringView", ptr %3, i32 0, i32 1
  %7 = load i64, ptr %6, align 8, !tbaa !30
  %8 = getelementptr inbounds nuw i8, ptr %5, i64 %7
  ret ptr %8
}

; Function Attrs: mustprogress nounwind uwtable
define linkonce_odr dso_local noundef ptr @_ZNK5vcpkg10StringView5beginEv(ptr noundef nonnull align 8 dereferenceable(16) %0) #2 comdat align 2 {
  %2 = alloca ptr, align 8
  store ptr %0, ptr %2, align 8, !tbaa !26
  %3 = load ptr, ptr %2, align 8
  %4 = getelementptr inbounds nuw %"struct.vcpkg::StringView", ptr %3, i32 0, i32 0
  %5 = load ptr, ptr %4, align 8, !tbaa !28
  ret ptr %5
}

; Function Attrs: mustprogress uwtable
define dso_local noundef zeroext i1 @_ZN5vcpkg10ParserBase17try_match_keywordENS_10StringViewE(ptr noundef nonnull align 8 dereferenceable(176) %0, ptr %1, i64 %2) #0 align 2 {
  %4 = alloca i1, align 1
  %5 = alloca %"struct.vcpkg::StringView", align 8
  %6 = alloca ptr, align 8
  %7 = alloca %"struct.vcpkg::Unicode::Utf8Decoder", align 8
  %8 = alloca ptr, align 8
  %9 = alloca ptr, align 8
  %10 = alloca ptr, align 8
  %11 = alloca i32, align 4
  %12 = alloca i8, align 1
  %13 = getelementptr inbounds nuw { ptr, i64 }, ptr %5, i32 0, i32 0
  store ptr %1, ptr %13, align 8
  %14 = getelementptr inbounds nuw { ptr, i64 }, ptr %5, i32 0, i32 1
  store i64 %2, ptr %14, align 8
  store ptr %0, ptr %6, align 8, !tbaa !77
  %15 = load ptr, ptr %6, align 8
  call void @llvm.lifetime.start.p0(i64 32, ptr %7) #19
  %16 = getelementptr inbounds nuw %"struct.vcpkg::ParserBase", ptr %15, i32 0, i32 0
  call void @llvm.memcpy.p0.p0.i64(ptr align 8 %7, ptr align 8 %16, i64 32, i1 false), !tbaa.struct !19
  call void @llvm.lifetime.start.p0(i64 8, ptr %8) #19
  store ptr %5, ptr %8, align 8, !tbaa !26
  call void @llvm.lifetime.start.p0(i64 8, ptr %9) #19
  %17 = load ptr, ptr %8, align 8, !tbaa !26
  %18 = call noundef ptr @_ZNK5vcpkg10StringView5beginEv(ptr noundef nonnull align 8 dereferenceable(16) %17) #19
  store ptr %18, ptr %9, align 8, !tbaa !17
  call void @llvm.lifetime.start.p0(i64 8, ptr %10) #19
  %19 = load ptr, ptr %8, align 8, !tbaa !26
  %20 = call noundef ptr @_ZNK5vcpkg10StringView3endEv(ptr noundef nonnull align 8 dereferenceable(16) %19) #19
  store ptr %20, ptr %10, align 8, !tbaa !17
  br label %21

21:                                               ; preds = %41, %3
  %22 = load ptr, ptr %9, align 8, !tbaa !17
  %23 = load ptr, ptr %10, align 8, !tbaa !17
  %24 = icmp ne ptr %22, %23
  br i1 %24, label %26, label %25

25:                                               ; preds = %21
  store i32 2, ptr %11, align 4
  br label %44

26:                                               ; preds = %21
  call void @llvm.lifetime.start.p0(i64 1, ptr %12) #19
  %27 = load ptr, ptr %9, align 8, !tbaa !17
  %28 = load i8, ptr %27, align 1, !tbaa !38
  store i8 %28, ptr %12, align 1, !tbaa !38
  %29 = call noundef zeroext i1 @_ZNK5vcpkg7Unicode11Utf8Decoder6is_eofEv(ptr noundef nonnull align 8 dereferenceable(32) %7) #19
  br i1 %29, label %35, label %30

30:                                               ; preds = %26
  %31 = call noundef zeroext i32 @_ZNK5vcpkg7Unicode11Utf8DecoderdeEv(ptr noundef nonnull align 8 dereferenceable(32) %7) #19
  %32 = load i8, ptr %12, align 1, !tbaa !38
  %33 = sext i8 %32 to i32
  %34 = icmp ne i32 %31, %33
  br i1 %34, label %35, label %36

35:                                               ; preds = %30, %26
  store i1 false, ptr %4, align 1
  store i32 1, ptr %11, align 4
  br label %38

36:                                               ; preds = %30
  %37 = call noundef nonnull align 8 dereferenceable(32) ptr @_ZN5vcpkg7Unicode11Utf8DecoderppEv(ptr noundef nonnull align 8 dereferenceable(32) %7) #19
  store i32 0, ptr %11, align 4
  br label %38

38:                                               ; preds = %36, %35
  call void @llvm.lifetime.end.p0(i64 1, ptr %12) #19
  %39 = load i32, ptr %11, align 4
  switch i32 %39, label %44 [
    i32 0, label %40
  ]

40:                                               ; preds = %38
  br label %41

41:                                               ; preds = %40
  %42 = load ptr, ptr %9, align 8, !tbaa !17
  %43 = getelementptr inbounds nuw i8, ptr %42, i32 1
  store ptr %43, ptr %9, align 8, !tbaa !17
  br label %21

44:                                               ; preds = %38, %25
  call void @llvm.lifetime.end.p0(i64 8, ptr %10) #19
  call void @llvm.lifetime.end.p0(i64 8, ptr %9) #19
  call void @llvm.lifetime.end.p0(i64 8, ptr %8) #19
  %45 = load i32, ptr %11, align 4
  switch i32 %45, label %64 [
    i32 2, label %46
  ]

46:                                               ; preds = %44
  %47 = call noundef zeroext i1 @_ZNK5vcpkg7Unicode11Utf8Decoder6is_eofEv(ptr noundef nonnull align 8 dereferenceable(32) %7) #19
  br i1 %47, label %52, label %48

48:                                               ; preds = %46
  %49 = call noundef zeroext i32 @_ZNK5vcpkg7Unicode11Utf8DecoderdeEv(ptr noundef nonnull align 8 dereferenceable(32) %7) #19
  %50 = call noundef zeroext i1 @_ZN5vcpkg10ParserBase13is_whitespaceEDi(i32 noundef zeroext %49)
  br i1 %50, label %52, label %51

51:                                               ; preds = %48
  store i1 false, ptr %4, align 1
  store i32 1, ptr %11, align 4
  br label %64

52:                                               ; preds = %48, %46
  %53 = getelementptr inbounds nuw %"struct.vcpkg::ParserBase", ptr %15, i32 0, i32 0
  call void @llvm.memcpy.p0.p0.i64(ptr align 8 %53, ptr align 8 %7, i64 32, i1 false), !tbaa.struct !19
  %54 = getelementptr inbounds nuw %"struct.vcpkg::ParserBase", ptr %15, i32 0, i32 3
  %55 = load i32, ptr %54, align 4, !tbaa !96
  %56 = icmp ne i32 %55, 0
  br i1 %56, label %57, label %63

57:                                               ; preds = %52
  %58 = call noundef i64 @_ZNK5vcpkg10StringView4sizeEv(ptr noundef nonnull align 8 dereferenceable(16) %5) #19
  %59 = trunc i64 %58 to i32
  %60 = getelementptr inbounds nuw %"struct.vcpkg::ParserBase", ptr %15, i32 0, i32 3
  %61 = load i32, ptr %60, align 4, !tbaa !96
  %62 = add nsw i32 %61, %59
  store i32 %62, ptr %60, align 4, !tbaa !96
  br label %63

63:                                               ; preds = %57, %52
  store i1 true, ptr %4, align 1
  store i32 1, ptr %11, align 4
  br label %64

64:                                               ; preds = %63, %51, %44
  call void @llvm.lifetime.end.p0(i64 32, ptr %7) #19
  %65 = load i1, ptr %4, align 1
  ret i1 %65
}