; Function Attrs: mustprogress nounwind uwtable
define dso_local noundef zeroext i1 @_ZN5vcpkg10ParserBase17try_match_keywordENS_10StringViewE(ptr noundef nonnull align 8 captures(none) dereferenceable(176) %0, ptr readonly captures(address) %1, i64 %2) local_unnamed_addr #8 align 2 personality ptr @__gxx_personality_v0 {
  %4 = alloca %"struct.vcpkg::Unicode::Utf8Decoder", align 8
  call void @llvm.lifetime.start.p0(i64 32, ptr nonnull %4) #21
  call void @llvm.memcpy.p0.p0.i64(ptr noundef nonnull align 8 dereferenceable(32) %4, ptr noundef nonnull align 8 dereferenceable(32) %0, i64 32, i1 false), !tbaa.struct !7
  %5 = getelementptr inbounds nuw i8, ptr %1, i64 %2
  %.not21 = icmp samesign eq i64 %2, 0
  br i1 %.not21, label %.critedge17, label %.lr.ph

.lr.ph:                                           ; preds = %3, %.critedge
  %.01322 = phi ptr [ %11, %.critedge ], [ %1, %3 ]
  %6 = load i8, ptr %.01322, align 1, !tbaa !28
  %7 = load i32, ptr %4, align 8, !tbaa !15
  %8 = icmp ne i32 %7, -1
  %9 = sext i8 %6 to i32
  %.not14 = icmp eq i32 %7, %9
  %or.cond = select i1 %8, i1 %.not14, i1 false
  br i1 %or.cond, label %.critedge, label %_ZN5vcpkg10ParserBase13is_whitespaceEDi.exit

.critedge:                                        ; preds = %.lr.ph
  %10 = call noundef nonnull align 8 dereferenceable(32) ptr @_ZN5vcpkg7Unicode11Utf8DecoderppEv(ptr noundef nonnull align 8 dereferenceable(32) %4) #21
  %11 = getelementptr inbounds nuw i8, ptr %.01322, i64 1
  %.not = icmp eq ptr %11, %5
  br i1 %.not, label %.critedge17, label %.lr.ph

.critedge17:                                      ; preds = %.critedge, %3
  %12 = load i32, ptr %4, align 8, !tbaa !15
  switch i32 %12, label %_ZN5vcpkg10ParserBase13is_whitespaceEDi.exit [
    i32 -1, label %_ZN5vcpkg10ParserBase13is_whitespaceEDi.exit.thread
    i32 32, label %_ZN5vcpkg10ParserBase13is_whitespaceEDi.exit.thread
    i32 13, label %_ZN5vcpkg10ParserBase13is_whitespaceEDi.exit.thread
    i32 9, label %_ZN5vcpkg10ParserBase13is_whitespaceEDi.exit.thread
    i32 10, label %_ZN5vcpkg10ParserBase13is_whitespaceEDi.exit.thread
  ]

_ZN5vcpkg10ParserBase13is_whitespaceEDi.exit.thread: ; preds = %.critedge17, %.critedge17, %.critedge17, %.critedge17, %.critedge17
  call void @llvm.memcpy.p0.p0.i64(ptr noundef nonnull align 8 dereferenceable(32) %0, ptr noundef nonnull align 8 dereferenceable(32) %4, i64 32, i1 false), !tbaa.struct !7
  %13 = getelementptr inbounds nuw i8, ptr %0, i64 68
  %14 = load i32, ptr %13, align 4, !tbaa !68
  %.not15 = icmp eq i32 %14, 0
  br i1 %.not15, label %_ZN5vcpkg10ParserBase13is_whitespaceEDi.exit, label %15

15:                                               ; preds = %_ZN5vcpkg10ParserBase13is_whitespaceEDi.exit.thread
  %16 = trunc i64 %2 to i32
  %17 = add nsw i32 %14, %16
  store i32 %17, ptr %13, align 4, !tbaa !68
  br label %_ZN5vcpkg10ParserBase13is_whitespaceEDi.exit

_ZN5vcpkg10ParserBase13is_whitespaceEDi.exit:     ; preds = %.lr.ph, %.critedge17, %_ZN5vcpkg10ParserBase13is_whitespaceEDi.exit.thread, %15
  %.3 = phi i1 [ true, %15 ], [ true, %_ZN5vcpkg10ParserBase13is_whitespaceEDi.exit.thread ], [ false, %.critedge17 ], [ false, %.lr.ph ]
  call void @llvm.lifetime.end.p0(i64 32, ptr nonnull %4) #21
  ret i1 %.3
}